; ModuleID = 'source-C-CXX/49/1083.c'
source_filename = "source-C-CXX/49/1083.c"
target datalayout = "e-m:e-p270:32:32-p271:32:32-p272:64:64-i64:64-f80:128-n8:16:32:64-S128"
target triple = "x86_64-pc-linux-gnu"

@.str = private unnamed_addr constant [3 x i8] c"%d\00", align 1
@.str.1 = private unnamed_addr constant [4 x i8] c"%d\0A\00", align 1
@switch.table.tianshu = private unnamed_addr constant [11 x i32] [i32 44, i32 72, i32 103, i32 133, i32 164, i32 194, i32 225, i32 256, i32 286, i32 317, i32 347], align 4

; Function Attrs: mustprogress nofree norecurse nosync nounwind readnone sspstrong uwtable willreturn
define dso_local i32 @tianshu(i32 %0) local_unnamed_addr #0 {
  %2 = add i32 %0, -2
  %3 = icmp ult i32 %2, 11
  br i1 %3, label %4, label %8

4:                                                ; preds = %1
  %5 = sext i32 %2 to i64
  %6 = getelementptr inbounds [11 x i32], [11 x i32]* @switch.table.tianshu, i64 0, i64 %5
  %7 = load i32, i32* %6, align 4
  br label %8

8:                                                ; preds = %4, %1
  %9 = phi i32 [ 13, %1 ], [ %7, %4 ]
  ret i32 %9
}

; Function Attrs: nofree nounwind sspstrong uwtable
define dso_local i32 @main() local_unnamed_addr #1 {
  %1 = alloca i32, align 4
  %2 = bitcast i32* %1 to i8*
  call void @llvm.lifetime.start.p0i8(i64 4, i8* nonnull %2) #4
  %3 = call i32 (i8*, ...) @__isoc99_scanf(i8* getelementptr inbounds ([3 x i8], [3 x i8]* @.str, i64 0, i64 0), i32* nonnull %1)
  %4 = load i32, i32* %1, align 4, !tbaa !5
  %5 = add nsw i32 %4, 5
  %6 = srem i32 %5, 7
  %7 = icmp eq i32 %6, 5
  br i1 %7, label %8, label %10

8:                                                ; preds = %0
  %9 = call i32 (i8*, ...) @printf(i8* nonnull dereferenceable(1) getelementptr inbounds ([4 x i8], [4 x i8]* @.str.1, i64 0, i64 0), i32 1)
  br label %10

10:                                               ; preds = %0, %8
  %11 = load i32, i32* %1, align 4, !tbaa !5
  %12 = add nsw i32 %11, 1
  %13 = srem i32 %12, 7
  %14 = icmp eq i32 %13, 5
  br i1 %14, label %15, label %17

15:                                               ; preds = %10
  %16 = call i32 (i8*, ...) @printf(i8* nonnull dereferenceable(1) getelementptr inbounds ([4 x i8], [4 x i8]* @.str.1, i64 0, i64 0), i32 2)
  br label %17

17:                                               ; preds = %15, %10
  %18 = load i32, i32* %1, align 4, !tbaa !5
  %19 = add nsw i32 %18, 1
  %20 = srem i32 %19, 7
  %21 = icmp eq i32 %20, 5
  br i1 %21, label %22, label %24

22:                                               ; preds = %17
  %23 = call i32 (i8*, ...) @printf(i8* nonnull dereferenceable(1) getelementptr inbounds ([4 x i8], [4 x i8]* @.str.1, i64 0, i64 0), i32 3)
  br label %24

24:                                               ; preds = %22, %17
  %25 = load i32, i32* %1, align 4, !tbaa !5
  %26 = add nsw i32 %25, 4
  %27 = srem i32 %26, 7
  %28 = icmp eq i32 %27, 5
  br i1 %28, label %29, label %31

29:                                               ; preds = %24
  %30 = call i32 (i8*, ...) @printf(i8* nonnull dereferenceable(1) getelementptr inbounds ([4 x i8], [4 x i8]* @.str.1, i64 0, i64 0), i32 4)
  br label %31

31:                                               ; preds = %29, %24
  %32 = load i32, i32* %1, align 4, !tbaa !5
  %33 = add nsw i32 %32, 6
  %34 = srem i32 %33, 7
  %35 = icmp eq i32 %34, 5
  br i1 %35, label %36, label %38

36:                                               ; preds = %31
  %37 = call i32 (i8*, ...) @printf(i8* nonnull dereferenceable(1) getelementptr inbounds ([4 x i8], [4 x i8]* @.str.1, i64 0, i64 0), i32 5)
  br label %38

38:                                               ; preds = %36, %31
  %39 = load i32, i32* %1, align 4, !tbaa !5
  %40 = add nsw i32 %39, 2
  %41 = srem i32 %40, 7
  %42 = icmp eq i32 %41, 5
  br i1 %42, label %43, label %45

43:                                               ; preds = %38
  %44 = call i32 (i8*, ...) @printf(i8* nonnull dereferenceable(1) getelementptr inbounds ([4 x i8], [4 x i8]* @.str.1, i64 0, i64 0), i32 6)
  br label %45

45:                                               ; preds = %43, %38
  %46 = load i32, i32* %1, align 4, !tbaa !5
  %47 = add nsw i32 %46, 4
  %48 = srem i32 %47, 7
  %49 = icmp eq i32 %48, 5
  br i1 %49, label %50, label %52

50:                                               ; preds = %45
  %51 = call i32 (i8*, ...) @printf(i8* nonnull dereferenceable(1) getelementptr inbounds ([4 x i8], [4 x i8]* @.str.1, i64 0, i64 0), i32 7)
  br label %52

52:                                               ; preds = %50, %45
  %53 = load i32, i32* %1, align 4, !tbaa !5
  %54 = srem i32 %53, 7
  %55 = icmp eq i32 %54, 5
  br i1 %55, label %56, label %58

56:                                               ; preds = %52
  %57 = call i32 (i8*, ...) @printf(i8* nonnull dereferenceable(1) getelementptr inbounds ([4 x i8], [4 x i8]* @.str.1, i64 0, i64 0), i32 8)
  br label %58

58:                                               ; preds = %56, %52
  %59 = load i32, i32* %1, align 4, !tbaa !5
  %60 = add nsw i32 %59, 3
  %61 = srem i32 %60, 7
  %62 = icmp eq i32 %61, 5
  br i1 %62, label %63, label %65

63:                                               ; preds = %58
  %64 = call i32 (i8*, ...) @printf(i8* nonnull dereferenceable(1) getelementptr inbounds ([4 x i8], [4 x i8]* @.str.1, i64 0, i64 0), i32 9)
  br label %65

65:                                               ; preds = %58, %63
  %66 = load i32, i32* %1, align 4, !tbaa !5
  %67 = add nsw i32 %66, 5
  %68 = srem i32 %67, 7
  %69 = icmp eq i32 %68, 5
  br i1 %69, label %70, label %72

70:                                               ; preds = %65
  %71 = call i32 (i8*, ...) @printf(i8* nonnull dereferenceable(1) getelementptr inbounds ([4 x i8], [4 x i8]* @.str.1, i64 0, i64 0), i32 10)
  br label %72

72:                                               ; preds = %70, %65
  %73 = load i32, i32* %1, align 4, !tbaa !5
  %74 = add nsw i32 %73, 1
  %75 = srem i32 %74, 7
  %76 = icmp eq i32 %75, 5
  br i1 %76, label %77, label %79

77:                                               ; preds = %72
  %78 = call i32 (i8*, ...) @printf(i8* nonnull dereferenceable(1) getelementptr inbounds ([4 x i8], [4 x i8]* @.str.1, i64 0, i64 0), i32 11)
  br label %79

79:                                               ; preds = %77, %72
  %80 = load i32, i32* %1, align 4, !tbaa !5
  %81 = add nsw i32 %80, 3
  %82 = srem i32 %81, 7
  %83 = icmp eq i32 %82, 5
  br i1 %83, label %84, label %86

84:                                               ; preds = %79
  %85 = call i32 (i8*, ...) @printf(i8* nonnull dereferenceable(1) getelementptr inbounds ([4 x i8], [4 x i8]* @.str.1, i64 0, i64 0), i32 12)
  br label %86

86:                                               ; preds = %84, %79
  call void @llvm.lifetime.end.p0i8(i64 4, i8* nonnull %2) #4
  ret i32 0
}

; Function Attrs: argmemonly mustprogress nofree nosync nounwind willreturn
declare void @llvm.lifetime.start.p0i8(i64 immarg, i8* nocapture) #2

; Function Attrs: nofree nounwind
declare noundef i32 @__isoc99_scanf(i8* nocapture noundef readonly, ...) local_unnamed_addr #3

; Function Attrs: nofree nounwind
declare noundef i32 @printf(i8* nocapture noundef readonly, ...) local_unnamed_addr #3

; Function Attrs: argmemonly mustprogress nofree nosync nounwind willreturn
declare void @llvm.lifetime.end.p0i8(i64 immarg, i8* nocapture) #2


!llvm.module.flags = !{!0, !1, !2, !3}
!llvm.ident = !{!4}

!0 = !{i32 1, !"wchar_size", i32 4}
!1 = !{i32 7, !"PIC Level", i32 2}
!2 = !{i32 7, !"PIE Level", i32 2}
!3 = !{i32 7, !"uwtable", i32 1}
!4 = !{!"clang version 13.0.0"}
!5 = !{!6, !6, i64 0}
!6 = !{!"int", !7, i64 0}
!7 = !{!"omnipotent char", !8, i64 0}
!8 = !{!"Simple C/C++ TBAA"}
